target datalayout = "e-m:e-p270:32:32-p271:32:32-p272:64:64-i64:64-i128:128-f80:128-n8:16:32:64-S128"
target triple = "x86_64-pc-linux-gnu"

%"class.cv::Mat" = type { i32, i32, i32, i32, ptr, ptr, ptr, ptr, ptr, ptr, %"struct.cv::MatSize", %"struct.cv::MatStep" }
%"struct.cv::MatSize" = type { ptr }
%"struct.cv::MatStep" = type { ptr, [2 x i64] }
%"class.cv::_InputArray" = type { i32, ptr, %"class.cv::Size_" }
%"class.cv::Size_" = type { i32, i32 }
%"class.cv::LDA" = type { i32, %"class.cv::Mat", %"class.cv::Mat" }

; Function Attrs: mustprogress nounwind uwtable
define linkonce_odr hidden void @_ZN2cv11_InputArray4initEiPKv(ptr noundef nonnull align 8 dereferenceable(24) %0, i32 noundef %1, ptr noundef %2) #6 comdat align 2 {
  %4 = alloca ptr, align 8
  %5 = alloca i32, align 4
  %6 = alloca ptr, align 8
  store ptr %0, ptr %4, align 8
  store i32 %1, ptr %5, align 4
  store ptr %2, ptr %6, align 8
  %7 = load ptr, ptr %4, align 8
  %8 = load i32, ptr %5, align 4
  %9 = getelementptr inbounds %"class.cv::_InputArray", ptr %7, i32 0, i32 0
  store i32 %8, ptr %9, align 8
  %10 = load ptr, ptr %6, align 8
  %11 = getelementptr inbounds %"class.cv::_InputArray", ptr %7, i32 0, i32 1
  store ptr %10, ptr %11, align 8
  ret void
}

; Function Attrs: mustprogress nounwind uwtable
define linkonce_odr hidden void @_ZN2cv5Size_IiEC2Ev(ptr noundef nonnull align 4 dereferenceable(8) %0) unnamed_addr #6 comdat align 2 {
  %2 = alloca ptr, align 8
  store ptr %0, ptr %2, align 8
  %3 = load ptr, ptr %2, align 8
  %4 = getelementptr inbounds %"class.cv::Size_", ptr %3, i32 0, i32 0
  store i32 0, ptr %4, align 4
  %5 = getelementptr inbounds %"class.cv::Size_", ptr %3, i32 0, i32 1
  store i32 0, ptr %5, align 4
  ret void
}

; Function Attrs: mustprogress nounwind uwtable
define linkonce_odr hidden void @_ZN2cv11_InputArrayD2Ev(ptr noundef nonnull align 8 dereferenceable(24) %0) unnamed_addr #6 comdat align 2 {
  %2 = alloca ptr, align 8
  store ptr %0, ptr %2, align 8
  ret void
}

; Function Attrs: mustprogress uwtable
define linkonce_odr hidden void @_ZN2cv11_InputArrayC2ERKNS_3MatE(ptr noundef nonnull align 8 dereferenceable(24) %0, ptr noundef nonnull align 8 dereferenceable(96) %1) unnamed_addr #4 comdat align 2 {
  %3 = alloca ptr, align 8
  %4 = alloca ptr, align 8
  store ptr %0, ptr %3, align 8
  store ptr %1, ptr %4, align 8
  %5 = load ptr, ptr %3, align 8
  %6 = getelementptr inbounds %"class.cv::_InputArray", ptr %5, i32 0, i32 2
  call void @_ZN2cv5Size_IiEC2Ev(ptr noundef nonnull align 4 dereferenceable(8) %6)
  %7 = load ptr, ptr %4, align 8
  call void @_ZN2cv11_InputArray4initEiPKv(ptr noundef nonnull align 8 dereferenceable(24) %5, i32 noundef 16842752, ptr noundef %7)
  ret void
}

; Function Attrs: mustprogress uwtable
define void @_ZN2cv3LDA7projectERKNS_11_InputArrayE(ptr dead_on_unwind noalias writable sret(%"class.cv::Mat") align 8 %0, ptr noundef nonnull align 8 dereferenceable(200) %1, ptr noundef nonnull align 8 dereferenceable(24) %2) #4 align 2 personality ptr @__gxx_personality_v0 {
  %4 = alloca ptr, align 8
  %5 = alloca ptr, align 8
  %6 = alloca ptr, align 8
  %7 = alloca %"class.cv::_InputArray", align 8
  %8 = alloca %"class.cv::_InputArray", align 8
  %9 = alloca %"class.cv::Mat", align 8
  %10 = alloca ptr, align 8
  %11 = alloca i32, align 4
  store ptr %0, ptr %4, align 8
  store ptr %1, ptr %5, align 8
  store ptr %2, ptr %6, align 8
  %12 = load ptr, ptr %5, align 8
  %13 = getelementptr inbounds %"class.cv::LDA", ptr %12, i32 0, i32 1
  call void @_ZN2cv11_InputArrayC2ERKNS_3MatE(ptr noundef nonnull align 8 dereferenceable(24) %7, ptr noundef nonnull align 8 dereferenceable(96) %13)
  call void @_ZN2cv3MatC1Ev(ptr noundef nonnull align 8 dereferenceable(96) %9) #3
  invoke void @_ZN2cv11_InputArrayC2ERKNS_3MatE(ptr noundef nonnull align 8 dereferenceable(24) %8, ptr noundef nonnull align 8 dereferenceable(96) %9)
          to label %14 unwind label %17

14:                                               ; preds = %3
  %15 = load ptr, ptr %6, align 8
  invoke void @_ZN2cv3LDA15subspaceProjectERKNS_11_InputArrayES3_S3_(ptr dead_on_unwind writable sret(%"class.cv::Mat") align 8 %0, ptr noundef nonnull align 8 dereferenceable(24) %7, ptr noundef nonnull align 8 dereferenceable(24) %8, ptr noundef nonnull align 8 dereferenceable(24) %15)
          to label %16 unwind label %21

16:                                               ; preds = %14
  call void @_ZN2cv11_InputArrayD2Ev(ptr noundef nonnull align 8 dereferenceable(24) %8) #3
  call void @_ZN2cv3MatD1Ev(ptr noundef nonnull align 8 dereferenceable(96) %9) #3
  call void @_ZN2cv11_InputArrayD2Ev(ptr noundef nonnull align 8 dereferenceable(24) %7) #3
  ret void

17:                                               ; preds = %3
  %18 = landingpad { ptr, i32 }
          cleanup
  %19 = extractvalue { ptr, i32 } %18, 0
  store ptr %19, ptr %10, align 8
  %20 = extractvalue { ptr, i32 } %18, 1
  store i32 %20, ptr %11, align 4
  br label %25

21:                                               ; preds = %14
  %22 = landingpad { ptr, i32 }
          cleanup
  %23 = extractvalue { ptr, i32 } %22, 0
  store ptr %23, ptr %10, align 8
  %24 = extractvalue { ptr, i32 } %22, 1
  store i32 %24, ptr %11, align 4
  call void @_ZN2cv11_InputArrayD2Ev(ptr noundef nonnull align 8 dereferenceable(24) %8) #3
  br label %25

25:                                               ; preds = %21, %17
  call void @_ZN2cv3MatD1Ev(ptr noundef nonnull align 8 dereferenceable(96) %9) #3
  call void @_ZN2cv11_InputArrayD2Ev(ptr noundef nonnull align 8 dereferenceable(24) %7) #3
  br label %26

26:                                               ; preds = %25
  %27 = load ptr, ptr %10, align 8
  %28 = load i32, ptr %11, align 4
  %29 = insertvalue { ptr, i32 } poison, ptr %27, 0
  %30 = insertvalue { ptr, i32 } %29, i32 %28, 1
  resume { ptr, i32 } %30
}