; Function Attrs: mustprogress uwtable
define void @_ZN2cv3LDA7projectERKNS_11_InputArrayE(ptr dead_on_unwind noalias writable sret(%"class.cv::Mat") align 8 %0, ptr noundef nonnull align 8 dereferenceable(200) %1, ptr noundef nonnull align 8 dereferenceable(24) %2) local_unnamed_addr #3 align 2 personality ptr @__gxx_personality_v0 {
  %4 = alloca %"class.cv::_InputArray", align 8
  %5 = alloca %"class.cv::_InputArray", align 8
  %6 = alloca %"class.cv::Mat", align 8
  %7 = getelementptr inbounds i8, ptr %1, i64 8
  %8 = getelementptr inbounds i8, ptr %4, i64 16
  store i32 0, ptr %8, align 8
  %9 = getelementptr inbounds i8, ptr %4, i64 20
  store i32 0, ptr %9, align 4
  store i32 16842752, ptr %4, align 8
  %10 = getelementptr inbounds i8, ptr %4, i64 8
  store ptr %7, ptr %10, align 8
  call void @_ZN2cv3MatC1Ev(ptr noundef nonnull align 8 dereferenceable(96) %6) #19
  %11 = getelementptr inbounds i8, ptr %5, i64 16
  store i32 0, ptr %11, align 8
  %12 = getelementptr inbounds i8, ptr %5, i64 20
  store i32 0, ptr %12, align 4
  store i32 16842752, ptr %5, align 8
  %13 = getelementptr inbounds i8, ptr %5, i64 8
  store ptr %6, ptr %13, align 8
  invoke void @_ZN2cv3LDA15subspaceProjectERKNS_11_InputArrayES3_S3_(ptr dead_on_unwind writable sret(%"class.cv::Mat") align 8 %0, ptr noundef nonnull align 8 dereferenceable(24) %4, ptr noundef nonnull align 8 dereferenceable(24) %5, ptr noundef nonnull align 8 dereferenceable(24) %2)
          to label %14 unwind label %15

14:                                               ; preds = %3
  call void @_ZN2cv3MatD1Ev(ptr noundef nonnull align 8 dereferenceable(96) %6) #19
  ret void

15:                                               ; preds = %3
  %16 = landingpad { ptr, i32 }
          cleanup
  call void @_ZN2cv3MatD1Ev(ptr noundef nonnull align 8 dereferenceable(96) %6) #19
  resume { ptr, i32 } %16
}